; Function Attrs: nounwind uwtable
define void @ff_msmpeg4_encode_ext_header(ptr noundef captures(none) %0) local_unnamed_addr #0 {
  %2 = getelementptr inbounds nuw i8, ptr %0, i64 472
  %3 = load ptr, ptr %2, align 8, !tbaa !15
  %4 = getelementptr inbounds nuw i8, ptr %3, i64 100
  %5 = load i32, ptr %4, align 4, !tbaa !50
  %6 = icmp sgt i32 %5, 0
  br i1 %6, label %7, label %13

7:                                                ; preds = %1
  %8 = getelementptr inbounds nuw i8, ptr %3, i64 104
  %9 = load i32, ptr %8, align 4, !tbaa !63
  %10 = icmp sgt i32 %9, 0
  br i1 %10, label %11, label %13

11:                                               ; preds = %7
  %12 = udiv i32 %5, %9
  br label %19

13:                                               ; preds = %7, %1
  %14 = getelementptr inbounds nuw i8, ptr %3, i64 84
  %15 = getelementptr inbounds nuw i8, ptr %3, i64 88
  %16 = load i32, ptr %15, align 4, !tbaa !64
  %17 = load i32, ptr %14, align 4, !tbaa !65
  %18 = sdiv i32 %16, %17
  br label %19

19:                                               ; preds = %13, %11
  %.0 = phi i32 [ %12, %11 ], [ %18, %13 ]
  %20 = getelementptr inbounds nuw i8, ptr %0, i64 4808
  %21 = tail call i32 @llvm.umin.i32(i32 %.0, i32 31)
  %22 = load i32, ptr %20, align 8, !tbaa !4
  %23 = getelementptr inbounds nuw i8, ptr %0, i64 4812
  %24 = load i32, ptr %23, align 4, !tbaa !11
  %25 = icmp sgt i32 %24, 5
  br i1 %25, label %26, label %29

26:                                               ; preds = %19
  %27 = shl i32 %22, 5
  %28 = or disjoint i32 %27, %21
  br label %put_bits.exit

29:                                               ; preds = %19
  %30 = getelementptr inbounds nuw i8, ptr %0, i64 4832
  %31 = load ptr, ptr %30, align 8, !tbaa !12
  %32 = getelementptr inbounds nuw i8, ptr %0, i64 4824
  %33 = load ptr, ptr %32, align 8, !tbaa !13
  %34 = ptrtoint ptr %31 to i64
  %35 = ptrtoint ptr %33 to i64
  %36 = sub i64 %34, %35
  %37 = icmp ugt i64 %36, 3
  br i1 %37, label %38, label %46

38:                                               ; preds = %29
  %39 = shl i32 %22, %24
  %40 = sub nsw i32 5, %24
  %41 = lshr i32 %21, %40
  %42 = or i32 %41, %39
  %43 = tail call i32 @llvm.bswap.i32(i32 %42)
  store i32 %43, ptr %33, align 1, !tbaa !14
  %44 = load ptr, ptr %32, align 8, !tbaa !13
  %45 = getelementptr inbounds nuw i8, ptr %44, i64 4
  store ptr %45, ptr %32, align 8, !tbaa !13
  br label %put_bits.exit

46:                                               ; preds = %29
  tail call void (ptr, i32, ptr, ...) @av_log(ptr noundef null, i32 noundef 16, ptr noundef nonnull @.str.11) #9
  br label %put_bits.exit

put_bits.exit:                                    ; preds = %38, %46, %26
  %.sink = phi i32 [ -5, %26 ], [ 27, %46 ], [ 27, %38 ]
  %.026.i.i = phi i32 [ %28, %26 ], [ %21, %46 ], [ %21, %38 ]
  %47 = add nsw i32 %24, %.sink
  store i32 %.026.i.i, ptr %20, align 8, !tbaa !4
  store i32 %47, ptr %23, align 4, !tbaa !11
  %48 = getelementptr inbounds nuw i8, ptr %0, i64 7528
  %49 = load i64, ptr %48, align 8, !tbaa !66
  %50 = icmp sgt i64 %49, 2097151
  %51 = sdiv i64 %49, 1024
  %52 = trunc i64 %51 to i32
  %53 = select i1 %50, i32 2047, i32 %52
  %54 = icmp sgt i32 %47, 11
  br i1 %54, label %55, label %58

55:                                               ; preds = %put_bits.exit
  %56 = shl i32 %.026.i.i, 11
  %57 = or i32 %53, %56
  br label %put_bits.exit22

58:                                               ; preds = %put_bits.exit
  %59 = getelementptr inbounds nuw i8, ptr %0, i64 4832
  %60 = load ptr, ptr %59, align 8, !tbaa !12
  %61 = getelementptr inbounds nuw i8, ptr %0, i64 4824
  %62 = load ptr, ptr %61, align 8, !tbaa !13
  %63 = ptrtoint ptr %60 to i64
  %64 = ptrtoint ptr %62 to i64
  %65 = sub i64 %63, %64
  %66 = icmp ugt i64 %65, 3
  br i1 %66, label %67, label %75

67:                                               ; preds = %58
  %68 = shl i32 %.026.i.i, %47
  %69 = sub nsw i32 11, %47
  %70 = lshr i32 %53, %69
  %71 = or i32 %70, %68
  %72 = tail call i32 @llvm.bswap.i32(i32 %71)
  store i32 %72, ptr %62, align 1, !tbaa !14
  %73 = load ptr, ptr %61, align 8, !tbaa !13
  %74 = getelementptr inbounds nuw i8, ptr %73, i64 4
  store ptr %74, ptr %61, align 8, !tbaa !13
  br label %put_bits.exit22

75:                                               ; preds = %58
  tail call void (ptr, i32, ptr, ...) @av_log(ptr noundef null, i32 noundef 16, ptr noundef nonnull @.str.11) #9
  br label %put_bits.exit22

put_bits.exit22:                                  ; preds = %67, %75, %55
  %.sink27 = phi i32 [ -11, %55 ], [ 21, %75 ], [ 21, %67 ]
  %.026.i.i20 = phi i32 [ %57, %55 ], [ %53, %75 ], [ %53, %67 ]
  %76 = add nsw i32 %47, %.sink27
  store i32 %.026.i.i20, ptr %20, align 8, !tbaa !4
  store i32 %76, ptr %23, align 4, !tbaa !11
  %77 = getelementptr inbounds nuw i8, ptr %0, i64 4148
  %78 = load i32, ptr %77, align 4, !tbaa !73
  %79 = icmp ugt i32 %78, 2
  %80 = getelementptr inbounds nuw i8, ptr %0, i64 4144
  %81 = load i32, ptr %80, align 8, !tbaa !74
  br i1 %79, label %82, label %106

82:                                               ; preds = %put_bits.exit22
  %83 = icmp sgt i32 %76, 1
  br i1 %83, label %84, label %87

84:                                               ; preds = %82
  %85 = shl i32 %.026.i.i20, 1
  %86 = or i32 %81, %85
  br label %put_bits.exit26

87:                                               ; preds = %82
  %88 = getelementptr inbounds nuw i8, ptr %0, i64 4832
  %89 = load ptr, ptr %88, align 8, !tbaa !12
  %90 = getelementptr inbounds nuw i8, ptr %0, i64 4824
  %91 = load ptr, ptr %90, align 8, !tbaa !13
  %92 = ptrtoint ptr %89 to i64
  %93 = ptrtoint ptr %91 to i64
  %94 = sub i64 %92, %93
  %95 = icmp ugt i64 %94, 3
  br i1 %95, label %96, label %104

96:                                               ; preds = %87
  %97 = shl i32 %.026.i.i20, %76
  %98 = sub nsw i32 1, %76
  %99 = lshr i32 %81, %98
  %100 = or i32 %99, %97
  %101 = tail call i32 @llvm.bswap.i32(i32 %100)
  store i32 %101, ptr %91, align 1, !tbaa !14
  %102 = load ptr, ptr %90, align 8, !tbaa !13
  %103 = getelementptr inbounds nuw i8, ptr %102, i64 4
  store ptr %103, ptr %90, align 8, !tbaa !13
  br label %put_bits.exit26

104:                                              ; preds = %87
  tail call void (ptr, i32, ptr, ...) @av_log(ptr noundef null, i32 noundef 16, ptr noundef nonnull @.str.11) #9
  br label %put_bits.exit26

put_bits.exit26:                                  ; preds = %96, %104, %84
  %.sink28 = phi i32 [ -1, %84 ], [ 31, %104 ], [ 31, %96 ]
  %.026.i.i24 = phi i32 [ %86, %84 ], [ %81, %104 ], [ %81, %96 ]
  %105 = add nsw i32 %76, %.sink28
  store i32 %.026.i.i24, ptr %20, align 8, !tbaa !4
  store i32 %105, ptr %23, align 4, !tbaa !11
  br label %108

106:                                              ; preds = %put_bits.exit22
  %.not = icmp eq i32 %81, 0
  br i1 %.not, label %108, label %107

107:                                              ; preds = %106
  tail call void (ptr, i32, ptr, ...) @av_log(ptr noundef null, i32 noundef 0, ptr noundef nonnull @.str, ptr noundef nonnull @.str.1, ptr noundef nonnull @.str.2, i32 noundef 302) #9
  tail call void @abort() #10
  unreachable

108:                                              ; preds = %106, %put_bits.exit26
  ret void
}